target datalayout = "e-m:e-p270:32:32-p271:32:32-p272:64:64-i64:64-i128:128-f80:128-n8:16:32:64-S128"
target triple = "x86_64-pc-linux-gnu"

; Function Attrs: mustprogress nounwind uwtable
define noundef zeroext i1 @_Z12equal_doubleddff(double noundef %0, double noundef %1, float noundef %2, float noundef %3) #0 {
  %5 = alloca double, align 8
  %6 = alloca double, align 8
  %7 = alloca float, align 4
  %8 = alloca float, align 4
  store double %0, ptr %5, align 8, !tbaa !24
  store double %1, ptr %6, align 8, !tbaa !24
  store float %2, ptr %7, align 4, !tbaa !22
  store float %3, ptr %8, align 4, !tbaa !22
  %9 = load double, ptr %5, align 8, !tbaa !24
  %10 = load double, ptr %6, align 8, !tbaa !24
  %11 = fsub double %9, %10
  %12 = call double @llvm.fabs.f64(double %11)
  %13 = fmul double 2.000000e+00, %12
  %14 = load double, ptr %5, align 8, !tbaa !24
  %15 = call double @llvm.fabs.f64(double %14)
  %16 = load double, ptr %6, align 8, !tbaa !24
  %17 = call double @llvm.fabs.f64(double %16)
  %18 = fadd double %15, %17
  %19 = load float, ptr %7, align 4, !tbaa !22
  %20 = fpext float %19 to double
  %21 = fmul double %18, %20
  %22 = fcmp ole double %13, %21
  br i1 %22, label %31, label %23

23:                                               ; preds = %4
  %24 = load double, ptr %5, align 8, !tbaa !24
  %25 = load double, ptr %6, align 8, !tbaa !24
  %26 = fsub double %24, %25
  %27 = call double @llvm.fabs.f64(double %26)
  %28 = load float, ptr %8, align 4, !tbaa !22
  %29 = fpext float %28 to double
  %30 = fcmp ole double %27, %29
  br label %31

31:                                               ; preds = %23, %4
  %32 = phi i1 [ true, %4 ], [ %30, %23 ]
  ret i1 %32
}