; Function Attrs: mustprogress nofree norecurse nosync nounwind willreturn memory(none) uwtable
define noundef zeroext i1 @_Z12equal_doubleddff(double noundef %0, double noundef %1, float noundef %2, float noundef %3) local_unnamed_addr #3 {
  %5 = fsub double %0, %1
  %6 = tail call double @llvm.fabs.f64(double %5)
  %7 = fmul double %6, 2.000000e+00
  %8 = tail call double @llvm.fabs.f64(double %0)
  %9 = tail call double @llvm.fabs.f64(double %1)
  %10 = fadd double %8, %9
  %11 = fpext float %2 to double
  %12 = fmul double %10, %11
  %13 = fcmp ole double %7, %12
  %14 = fpext float %3 to double
  %15 = fcmp ole double %6, %14
  %16 = or i1 %13, %15
  ret i1 %16
}